; Function Attrs: nounwind sspstrong uwtable
define internal void @lsi_class_init(ptr noundef %klass, ptr readnone captures(none) %data) #0 {
entry:
  %call.i = tail call ptr @object_class_dynamic_cast_assert(ptr noundef %klass, ptr noundef nonnull @.str.3, ptr noundef nonnull @.str.4, i32 noundef 77, ptr noundef nonnull @__func__.DEVICE_CLASS) #12
  %call.i9 = tail call ptr @object_class_dynamic_cast_assert(ptr noundef %klass, ptr noundef nonnull @.str.1, ptr noundef nonnull @.str.5, i32 noundef 10, ptr noundef nonnull @__func__.PCI_DEVICE_CLASS) #12
  %realize = getelementptr inbounds nuw i8, ptr %call.i9, i64 176
  store ptr @lsi_scsi_realize, ptr %realize, align 8
  %exit = getelementptr inbounds nuw i8, ptr %call.i9, i64 184
  store ptr @lsi_scsi_exit, ptr %exit, align 8
  %vendor_id = getelementptr inbounds nuw i8, ptr %call.i9, i64 208
  store i16 4096, ptr %vendor_id, align 8
  %device_id = getelementptr inbounds nuw i8, ptr %call.i9, i64 210
  store i16 18, ptr %device_id, align 2
  %class_id = getelementptr inbounds nuw i8, ptr %call.i9, i64 214
  store i16 256, ptr %class_id, align 2
  %subsystem_id = getelementptr inbounds nuw i8, ptr %call.i9, i64 218
  store i16 4096, ptr %subsystem_id, align 2
  %reset = getelementptr inbounds nuw i8, ptr %call.i, i64 136
  store ptr @lsi_scsi_reset, ptr %reset, align 8
  %vmsd = getelementptr inbounds nuw i8, ptr %call.i, i64 160
  store ptr @vmstate_lsi_scsi, ptr %vmsd, align 8
  %categories = getelementptr inbounds nuw i8, ptr %call.i, i64 96
  %0 = load i64, ptr %categories, align 8
  %or.i = or i64 %0, 4
  store i64 %or.i, ptr %categories, align 8
  ret void
}